target datalayout = "e-m:e-p270:32:32-p271:32:32-p272:64:64-i64:64-i128:128-f80:128-n8:16:32:64-S128"
target triple = "x86_64-pc-linux-gnu"

; Function Attrs: nounwind uwtable
define internal i32 @try_legacy_encoding(ptr noundef %0, i32 noundef %1, i32 noundef %2, ptr noundef %3) #0 {
  %5 = alloca i32, align 4
  %6 = alloca ptr, align 8
  %7 = alloca i32, align 4
  %8 = alloca i32, align 4
  %9 = alloca ptr, align 8
  %10 = alloca i32, align 4
  %11 = alloca ptr, align 8
  %12 = alloca i32, align 4
  store ptr %0, ptr %6, align 8, !tbaa !15
  store i32 %1, ptr %7, align 4, !tbaa !4
  store i32 %2, ptr %8, align 4, !tbaa !4
  store ptr %3, ptr %9, align 8, !tbaa !13
  call void @llvm.lifetime.start.p0(i64 4, ptr %10) #6
  store i32 0, ptr %10, align 4, !tbaa !4
  call void @llvm.lifetime.start.p0(i64 8, ptr %11) #6
  %13 = load ptr, ptr %6, align 8, !tbaa !15
  %14 = call ptr @EVP_PKEY_get0_RSA(ptr noundef %13)
  store ptr %14, ptr %11, align 8, !tbaa !33
  %15 = load ptr, ptr %11, align 8, !tbaa !33
  %16 = icmp eq ptr %15, null
  br i1 %16, label %17, label %18

17:                                               ; preds = %4
  store i32 0, ptr %5, align 4
  store i32 1, ptr %12, align 4
  br label %72

18:                                               ; preds = %4
  %19 = load i32, ptr %7, align 4, !tbaa !4
  %20 = icmp eq i32 %19, 4
  br i1 %20, label %21, label %37

21:                                               ; preds = %18
  %22 = load i32, ptr %8, align 4, !tbaa !4
  %23 = icmp eq i32 %22, 2
  br i1 %23, label %24, label %30

24:                                               ; preds = %21
  %25 = load ptr, ptr %9, align 8, !tbaa !13
  %26 = load ptr, ptr %11, align 8, !tbaa !33
  %27 = call i32 @i2d_RSAPublicKey_bio(ptr noundef %25, ptr noundef %26)
  %28 = icmp sgt i32 %27, 0
  %29 = zext i1 %28 to i32
  store i32 %29, ptr %10, align 4, !tbaa !4
  br label %36

30:                                               ; preds = %21
  %31 = load ptr, ptr %9, align 8, !tbaa !13
  %32 = load ptr, ptr %11, align 8, !tbaa !33
  %33 = call i32 @i2d_RSA_PUBKEY_bio(ptr noundef %31, ptr noundef %32)
  %34 = icmp sgt i32 %33, 0
  %35 = zext i1 %34 to i32
  store i32 %35, ptr %10, align 4, !tbaa !4
  br label %36

36:                                               ; preds = %30, %24
  br label %70

37:                                               ; preds = %18
  %38 = load i32, ptr %7, align 4, !tbaa !4
  %39 = icmp eq i32 %38, 32773
  br i1 %39, label %40, label %56

40:                                               ; preds = %37
  %41 = load i32, ptr %8, align 4, !tbaa !4
  %42 = icmp eq i32 %41, 2
  br i1 %42, label %43, label %49

43:                                               ; preds = %40
  %44 = load ptr, ptr %9, align 8, !tbaa !13
  %45 = load ptr, ptr %11, align 8, !tbaa !33
  %46 = call i32 @PEM_write_bio_RSAPublicKey(ptr noundef %44, ptr noundef %45)
  %47 = icmp sgt i32 %46, 0
  %48 = zext i1 %47 to i32
  store i32 %48, ptr %10, align 4, !tbaa !4
  br label %55

49:                                               ; preds = %40
  %50 = load ptr, ptr %9, align 8, !tbaa !13
  %51 = load ptr, ptr %11, align 8, !tbaa !33
  %52 = call i32 @PEM_write_bio_RSA_PUBKEY(ptr noundef %50, ptr noundef %51)
  %53 = icmp sgt i32 %52, 0
  %54 = zext i1 %53 to i32
  store i32 %54, ptr %10, align 4, !tbaa !4
  br label %55

55:                                               ; preds = %49, %43
  br label %69

56:                                               ; preds = %37
  %57 = load i32, ptr %7, align 4, !tbaa !4
  %58 = icmp eq i32 %57, 11
  br i1 %58, label %62, label %59

59:                                               ; preds = %56
  %60 = load i32, ptr %7, align 4, !tbaa !4
  %61 = icmp eq i32 %60, 12
  br i1 %61, label %62, label %68

62:                                               ; preds = %59, %56
  %63 = load ptr, ptr %9, align 8, !tbaa !13
  %64 = load ptr, ptr %6, align 8, !tbaa !15
  %65 = call i32 @i2b_PublicKey_bio(ptr noundef %63, ptr noundef %64)
  %66 = icmp sgt i32 %65, 0
  %67 = zext i1 %66 to i32
  store i32 %67, ptr %10, align 4, !tbaa !4
  br label %68

68:                                               ; preds = %62, %59
  br label %69

69:                                               ; preds = %68, %55
  br label %70

70:                                               ; preds = %69, %36
  %71 = load i32, ptr %10, align 4, !tbaa !4
  store i32 %71, ptr %5, align 4
  store i32 1, ptr %12, align 4
  br label %72

72:                                               ; preds = %70, %17
  call void @llvm.lifetime.end.p0(i64 8, ptr %11) #6
  call void @llvm.lifetime.end.p0(i64 4, ptr %10) #6
  %73 = load i32, ptr %5, align 4
  ret i32 %73
}