; Function Attrs: nounwind uwtable
define internal fastcc range(i32 0, 2) i32 @try_legacy_encoding(ptr noundef nonnull %0, i32 noundef %1, i32 noundef range(i32 0, 3) %2, ptr noundef nonnull %3) unnamed_addr #0 {
  %5 = tail call ptr @EVP_PKEY_get0_RSA(ptr noundef nonnull %0) #6
  %6 = icmp eq ptr %5, null
  br i1 %6, label %30, label %7

7:                                                ; preds = %4
  switch i32 %1, label %24 [
    i32 4, label %8
    i32 32773, label %16
  ]

8:                                                ; preds = %7
  %9 = icmp eq i32 %2, 2
  br i1 %9, label %10, label %13

10:                                               ; preds = %8
  %11 = tail call i32 @i2d_RSAPublicKey_bio(ptr noundef nonnull %3, ptr noundef nonnull %5) #6
  %12 = icmp sgt i32 %11, 0
  br label %29

13:                                               ; preds = %8
  %14 = tail call i32 @i2d_RSA_PUBKEY_bio(ptr noundef nonnull %3, ptr noundef nonnull %5) #6
  %15 = icmp sgt i32 %14, 0
  br label %29

16:                                               ; preds = %7
  %17 = icmp eq i32 %2, 2
  br i1 %17, label %18, label %21

18:                                               ; preds = %16
  %19 = tail call i32 @PEM_write_bio_RSAPublicKey(ptr noundef nonnull %3, ptr noundef nonnull %5) #6
  %20 = icmp sgt i32 %19, 0
  br label %29

21:                                               ; preds = %16
  %22 = tail call i32 @PEM_write_bio_RSA_PUBKEY(ptr noundef nonnull %3, ptr noundef nonnull %5) #6
  %23 = icmp sgt i32 %22, 0
  br label %29

24:                                               ; preds = %7
  %25 = add i32 %1, -11
  %or.cond = icmp ult i32 %25, 2
  br i1 %or.cond, label %26, label %29

26:                                               ; preds = %24
  %27 = tail call i32 @i2b_PublicKey_bio(ptr noundef nonnull %3, ptr noundef nonnull %0) #6
  %28 = icmp sgt i32 %27, 0
  br label %29

29:                                               ; preds = %21, %18, %24, %26, %10, %13
  %.020.shrunk = phi i1 [ %12, %10 ], [ %15, %13 ], [ %20, %18 ], [ %23, %21 ], [ %28, %26 ], [ false, %24 ]
  %.020 = zext i1 %.020.shrunk to i32
  br label %30

30:                                               ; preds = %4, %29
  %.0 = phi i32 [ %.020, %29 ], [ 0, %4 ]
  ret i32 %.0
}